; ModuleID = '61/1170.c'
source_filename = "61/1170.c"
target datalayout = "e-m:e-p270:32:32-p271:32:32-p272:64:64-i64:64-f80:128-n8:16:32:64-S128"
target triple = "x86_64-pc-linux-gnu"

@.str = private unnamed_addr constant [3 x i8] c"%d\00", align 1
@.str.1 = private unnamed_addr constant [4 x i8] c"%d\0A\00", align 1

; Function Attrs: noinline nounwind uwtable
define dso_local i32 @main() #0 {
  %1 = alloca i32, align 4
  %2 = alloca i32, align 4
  %3 = alloca i32, align 4
  %4 = alloca i32, align 4
  %5 = alloca i32, align 4
  %6 = alloca i32, align 4
  %7 = alloca [20 x i32], align 16
  %8 = alloca [20 x i32], align 16
  %9 = alloca [20 x i32], align 16
  %10 = alloca i32, align 4
  store i32 0, i32* %1, align 4
  store i32 0, i32* %5, align 4
  store i32 0, i32* %6, align 4
  %11 = bitcast [20 x i32]* %7 to i8*
  call void @llvm.memset.p0i8.i64(i8* align 16 %11, i8 0, i64 80, i1 false)
  %12 = bitcast i8* %11 to <{ i32, i32, [18 x i32] }>*
  %13 = getelementptr inbounds <{ i32, i32, [18 x i32] }>, <{ i32, i32, [18 x i32] }>* %12, i32 0, i32 0
  store i32 1, i32* %13, align 16
  %14 = getelementptr inbounds <{ i32, i32, [18 x i32] }>, <{ i32, i32, [18 x i32] }>* %12, i32 0, i32 1
  store i32 1, i32* %14, align 4
  %15 = bitcast [20 x i32]* %8 to i8*
  call void @llvm.memset.p0i8.i64(i8* align 16 %15, i8 0, i64 80, i1 false)
  %16 = bitcast [20 x i32]* %9 to i8*
  call void @llvm.memset.p0i8.i64(i8* align 16 %16, i8 0, i64 80, i1 false)
  store i32 2, i32* %2, align 4
  br label %17

17:                                               ; preds = %35, %0
  %18 = load i32, i32* %2, align 4
  %19 = icmp slt i32 %18, 20
  br i1 %19, label %20, label %38

20:                                               ; preds = %17
  %21 = load i32, i32* %2, align 4
  %22 = sub nsw i32 %21, 2
  %23 = sext i32 %22 to i64
  %24 = getelementptr inbounds [20 x i32], [20 x i32]* %7, i64 0, i64 %23
  %25 = load i32, i32* %24, align 4
  %26 = load i32, i32* %2, align 4
  %27 = sub nsw i32 %26, 1
  %28 = sext i32 %27 to i64
  %29 = getelementptr inbounds [20 x i32], [20 x i32]* %7, i64 0, i64 %28
  %30 = load i32, i32* %29, align 4
  %31 = add nsw i32 %25, %30
  %32 = load i32, i32* %2, align 4
  %33 = sext i32 %32 to i64
  %34 = getelementptr inbounds [20 x i32], [20 x i32]* %7, i64 0, i64 %33
  store i32 %31, i32* %34, align 4
  br label %35

35:                                               ; preds = %20
  %36 = load i32, i32* %2, align 4
  %37 = add nsw i32 %36, 1
  store i32 %37, i32* %2, align 4
  br label %17

38:                                               ; preds = %17
  store i32 0, i32* %2, align 4
  br label %39

39:                                               ; preds = %50, %38
  %40 = load i32, i32* %2, align 4
  %41 = icmp slt i32 %40, 20
  br i1 %41, label %42, label %53

42:                                               ; preds = %39
  %43 = load i32, i32* %2, align 4
  %44 = sext i32 %43 to i64
  %45 = getelementptr inbounds [20 x i32], [20 x i32]* %7, i64 0, i64 %44
  %46 = load i32, i32* %45, align 4
  %47 = load i32, i32* %2, align 4
  %48 = sext i32 %47 to i64
  %49 = getelementptr inbounds [20 x i32], [20 x i32]* %8, i64 0, i64 %48
  store i32 %46, i32* %49, align 4
  br label %50

50:                                               ; preds = %42
  %51 = load i32, i32* %2, align 4
  %52 = add nsw i32 %51, 1
  store i32 %52, i32* %2, align 4
  br label %39

53:                                               ; preds = %39
  %54 = call i32 (i8*, ...) @__isoc99_scanf(i8* getelementptr inbounds ([3 x i8], [3 x i8]* @.str, i64 0, i64 0), i32* %10)
  store i32 0, i32* %3, align 4
  br label %55

55:                                               ; preds = %64, %53
  %56 = load i32, i32* %3, align 4
  %57 = load i32, i32* %10, align 4
  %58 = icmp slt i32 %56, %57
  br i1 %58, label %59, label %67

59:                                               ; preds = %55
  %60 = load i32, i32* %3, align 4
  %61 = sext i32 %60 to i64
  %62 = getelementptr inbounds [20 x i32], [20 x i32]* %9, i64 0, i64 %61
  %63 = call i32 (i8*, ...) @__isoc99_scanf(i8* getelementptr inbounds ([3 x i8], [3 x i8]* @.str, i64 0, i64 0), i32* %62)
  br label %64

64:                                               ; preds = %59
  %65 = load i32, i32* %3, align 4
  %66 = add nsw i32 %65, 1
  store i32 %66, i32* %3, align 4
  br label %55

67:                                               ; preds = %55
  store i32 0, i32* %4, align 4
  br label %68

68:                                               ; preds = %84, %67
  %69 = load i32, i32* %4, align 4
  %70 = load i32, i32* %10, align 4
  %71 = icmp slt i32 %69, %70
  br i1 %71, label %72, label %87

72:                                               ; preds = %68
  %73 = load i32, i32* %4, align 4
  %74 = sext i32 %73 to i64
  %75 = getelementptr inbounds [20 x i32], [20 x i32]* %9, i64 0, i64 %74
  %76 = load i32, i32* %75, align 4
  store i32 %76, i32* %5, align 4
  %77 = load i32, i32* %5, align 4
  %78 = sub nsw i32 %77, 1
  %79 = sext i32 %78 to i64
  %80 = getelementptr inbounds [20 x i32], [20 x i32]* %8, i64 0, i64 %79
  %81 = load i32, i32* %80, align 4
  store i32 %81, i32* %6, align 4
  %82 = load i32, i32* %6, align 4
  %83 = call i32 (i8*, ...) @printf(i8* getelementptr inbounds ([4 x i8], [4 x i8]* @.str.1, i64 0, i64 0), i32 %82)
  br label %84

84:                                               ; preds = %72
  %85 = load i32, i32* %4, align 4
  %86 = add nsw i32 %85, 1
  store i32 %86, i32* %4, align 4
  br label %68

87:                                               ; preds = %68
  ret i32 0
}

; Function Attrs: argmemonly nounwind willreturn
declare void @llvm.memset.p0i8.i64(i8* nocapture writeonly, i8, i64, i1 immarg) #1

declare dso_local i32 @__isoc99_scanf(i8*, ...) #2

declare dso_local i32 @printf(i8*, ...) #2


!llvm.module.flags = !{!0}
!llvm.ident = !{!1}

!0 = !{i32 1, !"wchar_size", i32 4}
!1 = !{!"clang version 10.0.0-4ubuntu1 "}
